; Function Attrs: nounwind uwtable
define ptr @l_Array_mapMUnsafe_map___at_Lean_PersistentHashMap_mapMAux___spec__1___rarg___lambda__1___boxed(ptr noundef %0, ptr noundef %1, ptr noundef %2, ptr noundef %3, ptr noundef %4, ptr noundef %5, ptr noundef %6) #2 {
  %8 = getelementptr i8, ptr %0, i64 8
  %.val14 = load i64, ptr %8, align 8, !tbaa !12
  %9 = ptrtoint ptr %0 to i64
  %10 = and i64 %9, 1
  %.not = icmp eq i64 %10, 0
  br i1 %.not, label %11, label %lean_dec.exit11

11:                                               ; preds = %7
  %12 = load i32, ptr %0, align 4, !tbaa !4
  %13 = icmp sgt i32 %12, 1
  br i1 %13, label %14, label %16, !prof !11

14:                                               ; preds = %11
  %15 = add nsw i32 %12, -1
  store i32 %15, ptr %0, align 4, !tbaa !4
  br label %lean_dec.exit11

16:                                               ; preds = %11
  %.not.i = icmp eq i32 %12, 0
  br i1 %.not.i, label %lean_dec.exit11, label %17

17:                                               ; preds = %16
  tail call void @lean_dec_ref_cold(ptr noundef nonnull %0) #7
  br label %lean_dec.exit11

lean_dec.exit11:                                  ; preds = %17, %16, %14, %7
  %18 = getelementptr i8, ptr %5, i64 8
  %.val = load i64, ptr %18, align 8, !tbaa !12
  %19 = ptrtoint ptr %5 to i64
  %20 = and i64 %19, 1
  %.not15 = icmp eq i64 %20, 0
  br i1 %.not15, label %21, label %lean_dec.exit

21:                                               ; preds = %lean_dec.exit11
  %22 = load i32, ptr %5, align 4, !tbaa !4
  %23 = icmp sgt i32 %22, 1
  br i1 %23, label %24, label %26, !prof !11

24:                                               ; preds = %21
  %25 = add nsw i32 %22, -1
  store i32 %25, ptr %5, align 4, !tbaa !4
  br label %lean_dec.exit

26:                                               ; preds = %21
  %.not.i12 = icmp eq i32 %22, 0
  br i1 %.not.i12, label %lean_dec.exit, label %27

27:                                               ; preds = %26
  tail call void @lean_dec_ref_cold(ptr noundef nonnull %5) #7
  br label %lean_dec.exit

lean_dec.exit:                                    ; preds = %27, %26, %24, %lean_dec.exit11
  %.val.i.i.i = load i32, ptr %1, align 4, !tbaa !4
  %28 = icmp eq i32 %.val.i.i.i, 1
  br i1 %28, label %lean_ensure_exclusive_array.exit.i.i, label %29

29:                                               ; preds = %lean_dec.exit
  %30 = tail call ptr @lean_copy_expand_array(ptr noundef nonnull %1, i1 noundef zeroext false) #7
  br label %lean_ensure_exclusive_array.exit.i.i

lean_ensure_exclusive_array.exit.i.i:             ; preds = %29, %lean_dec.exit
  %.0.i.i.i = phi ptr [ %30, %29 ], [ %1, %lean_dec.exit ]
  %31 = getelementptr inbounds nuw i8, ptr %.0.i.i.i, i64 24
  %32 = getelementptr inbounds nuw ptr, ptr %31, i64 %.val14
  %33 = load ptr, ptr %32, align 8, !tbaa !9
  %34 = ptrtoint ptr %33 to i64
  %35 = and i64 %34, 1
  %.not.i.i = icmp eq i64 %35, 0
  br i1 %.not.i.i, label %36, label %l_Array_mapMUnsafe_map___at_Lean_PersistentHashMap_mapMAux___spec__1___rarg___lambda__1.exit

36:                                               ; preds = %lean_ensure_exclusive_array.exit.i.i
  %37 = load i32, ptr %33, align 4, !tbaa !4
  %38 = icmp sgt i32 %37, 1
  br i1 %38, label %39, label %41, !prof !11

39:                                               ; preds = %36
  %40 = add nsw i32 %37, -1
  store i32 %40, ptr %33, align 4, !tbaa !4
  br label %l_Array_mapMUnsafe_map___at_Lean_PersistentHashMap_mapMAux___spec__1___rarg___lambda__1.exit

41:                                               ; preds = %36
  %.not.i.i.i = icmp eq i32 %37, 0
  br i1 %.not.i.i.i, label %l_Array_mapMUnsafe_map___at_Lean_PersistentHashMap_mapMAux___spec__1___rarg___lambda__1.exit, label %42

42:                                               ; preds = %41
  tail call void @lean_dec_ref_cold(ptr noundef nonnull %33) #7
  br label %l_Array_mapMUnsafe_map___at_Lean_PersistentHashMap_mapMAux___spec__1___rarg___lambda__1.exit

l_Array_mapMUnsafe_map___at_Lean_PersistentHashMap_mapMAux___spec__1___rarg___lambda__1.exit: ; preds = %lean_ensure_exclusive_array.exit.i.i, %39, %41, %42
  %43 = add i64 %.val14, 1
  store ptr %6, ptr %32, align 8, !tbaa !9
  %44 = tail call ptr @l_Array_mapMUnsafe_map___at_Lean_PersistentHashMap_mapMAux___spec__1___rarg(ptr noundef %2, ptr noundef %3, ptr noundef %4, i64 noundef %.val, i64 noundef %43, ptr noundef nonnull %.0.i.i.i)
  ret ptr %44
}